; Function Attrs: nounwind uwtable
define dso_local noundef i32 @uv_pipe_init(ptr noundef %0, ptr noundef %1, i32 noundef %2) local_unnamed_addr #0 {
  tail call void @uv__stream_init(ptr noundef %0, ptr noundef %1, i32 noundef 7) #11
  %4 = getelementptr inbounds nuw i8, ptr %1, i64 120
  %5 = getelementptr inbounds nuw i8, ptr %1, i64 256
  store ptr null, ptr %5, align 8, !tbaa !4
  %6 = getelementptr inbounds nuw i8, ptr %1, i64 248
  tail call void @llvm.memset.p0.i64(ptr noundef nonnull align 8 dereferenceable(16) %4, i8 0, i64 16, i1 false)
  store i32 %2, ptr %6, align 8, !tbaa !17
  ret i32 0
}